libImath-3_0.so.28:_Z9printBitsPcN9Imath_3_04halfE
libImath-3_0.so.28:_Z9printBitsPcf
libImath-3_0.so.28:_Z9printBitsRSoN9Imath_3_04halfE
libImath-3_0.so.28:_Z9printBitsRSof
libImath-3_0.so.28:_ZN9Imath_3_014maxEigenVectorINS_8Matrix33IdEENS_4Vec3IdEEEEvRT_RT0_
libImath-3_0.so.28:_ZN9Imath_3_014maxEigenVectorINS_8Matrix33IfEENS_4Vec3IfEEEEvRT_RT0_
libImath-3_0.so.28:_ZN9Imath_3_014maxEigenVectorINS_8Matrix44IdEENS_4Vec4IdEEEEvRT_RT0_
libImath-3_0.so.28:_ZN9Imath_3_014maxEigenVectorINS_8Matrix44IfEENS_4Vec4IfEEEEvRT_RT0_
libImath-3_0.so.28:_ZN9Imath_3_014minEigenVectorINS_8Matrix33IdEENS_4Vec3IdEEEEvRT_RT0_
libImath-3_0.so.28:_ZN9Imath_3_014minEigenVectorINS_8Matrix33IfEENS_4Vec3IfEEEEvRT_RT0_
libImath-3_0.so.28:_ZN9Imath_3_014minEigenVectorINS_8Matrix44IdEENS_4Vec4IdEEEEvRT_RT0_
libImath-3_0.so.28:_ZN9Imath_3_014minEigenVectorINS_8Matrix44IfEENS_4Vec4IfEEEEvRT_RT0_
libImath-3_0.so.28:_ZN9Imath_3_017jacobiEigenSolverIdEEvRNS_8Matrix33IT_EERNS_4Vec3IS2_EES4_S2_
libImath-3_0.so.28:_ZN9Imath_3_017jacobiEigenSolverIdEEvRNS_8Matrix44IT_EERNS_4Vec4IS2_EES4_S2_
libImath-3_0.so.28:_ZN9Imath_3_017jacobiEigenSolverIfEEvRNS_8Matrix33IT_EERNS_4Vec3IS2_EES4_S2_
libImath-3_0.so.28:_ZN9Imath_3_017jacobiEigenSolverIfEEvRNS_8Matrix44IT_EERNS_4Vec4IS2_EES4_S2_
libImath-3_0.so.28:_ZN9Imath_3_032procrustesRotationAndTranslationIdEENS_8Matrix44IdEEPKNS_4Vec3IT_EES7_PKS4_mb
libImath-3_0.so.28:_ZN9Imath_3_032procrustesRotationAndTranslationIdEENS_8Matrix44IdEEPKNS_4Vec3IT_EES7_mb
libImath-3_0.so.28:_ZN9Imath_3_032procrustesRotationAndTranslationIfEENS_8Matrix44IdEEPKNS_4Vec3IT_EES7_PKS4_mb
libImath-3_0.so.28:_ZN9Imath_3_032procrustesRotationAndTranslationIfEENS_8Matrix44IdEEPKNS_4Vec3IT_EES7_mb
libImath-3_0.so.28:_ZN9Imath_3_04half7convertEi
libImath-3_0.so.28:_ZN9Imath_3_04half8overflowEv
libImath-3_0.so.28:_ZN9Imath_3_05preddEd
libImath-3_0.so.28:_ZN9Imath_3_05predfEf
libImath-3_0.so.28:_ZN9Imath_3_05succdEd
libImath-3_0.so.28:_ZN9Imath_3_05succfEf
libImath-3_0.so.28:_ZN9Imath_3_06Rand325nextfEv
libImath-3_0.so.28:_ZN9Imath_3_07drand48Ev
libImath-3_0.so.28:_ZN9Imath_3_07erand48EPt
libImath-3_0.so.28:_ZN9Imath_3_07lrand48Ev
libImath-3_0.so.28:_ZN9Imath_3_07nrand48EPt
libImath-3_0.so.28:_ZN9Imath_3_07srand48El
libImath-3_0.so.28:_ZN9Imath_3_09hsv2rgb_dERKNS_4Vec3IdEE
libImath-3_0.so.28:_ZN9Imath_3_09hsv2rgb_dERKNS_6Color4IdEE
libImath-3_0.so.28:_ZN9Imath_3_09jacobiSVDIdEEvRKNS_8Matrix33IT_EERS3_RNS_4Vec3IS2_EES6_S2_b
libImath-3_0.so.28:_ZN9Imath_3_09jacobiSVDIdEEvRKNS_8Matrix44IT_EERS3_RNS_4Vec4IS2_EES6_S2_b
libImath-3_0.so.28:_ZN9Imath_3_09jacobiSVDIfEEvRKNS_8Matrix33IT_EERS3_RNS_4Vec3IS2_EES6_S2_b
libImath-3_0.so.28:_ZN9Imath_3_09jacobiSVDIfEEvRKNS_8Matrix44IT_EERS3_RNS_4Vec4IS2_EES6_S2_b
libImath-3_0.so.28:_ZN9Imath_3_09rgb2hsv_dERKNS_4Vec3IdEE
libImath-3_0.so.28:_ZN9Imath_3_09rgb2hsv_dERKNS_6Color4IdEE
libImath-3_0.so.28:_ZlsRSoN9Imath_3_04halfE
libImath-3_0.so.28:_ZrsRSiRN9Imath_3_04halfE
